; Function Attrs: cold nounwind optsize uwtable
define internal range(i32 -12, 1) i32 @bethsoftvid_decode_init(ptr noundef captures(none) initializes((136, 140)) %0) #0 {
  %2 = getelementptr inbounds nuw i8, ptr %0, i64 32
  %3 = load ptr, ptr %2, align 8, !tbaa !4
  %4 = getelementptr inbounds nuw i8, ptr %0, i64 136
  store i32 11, ptr %4, align 8, !tbaa !27
  %5 = tail call ptr @av_frame_alloc() #7
  store ptr %5, ptr %3, align 8, !tbaa !28
  %.not = icmp eq ptr %5, null
  %. = select i1 %.not, i32 -12, i32 0
  ret i32 %.
}